target datalayout = "e-m:e-p270:32:32-p271:32:32-p272:64:64-i64:64-i128:128-f80:128-n8:16:32:64-S128"
target triple = "x86_64-pc-linux-gnu"

%class.simplify_tactic = type { %class.tactic.base, i8, ptr, %class.params_ref }
%class.tactic.base = type <{ %"class.user_propagator::core", i32 }>
%"class.user_propagator::core" = type { ptr }
%class.params_ref = type { ptr }
%"struct.simplify_tactic::imp" = type <{ ptr, %class.th_rewriter, i32, [4 x i8] }>
%class.th_rewriter = type { ptr, %class.params_ref }

; Function Attrs: mustprogress uwtable
define linkonce_odr hidden void @_ZN10params_ref6appendERKS_(ptr noundef nonnull align 8 dereferenceable(8) %0, ptr noundef nonnull align 8 dereferenceable(8) %1) #4 comdat align 2 {
  %3 = alloca ptr, align 8
  %4 = alloca ptr, align 8
  store ptr %0, ptr %3, align 8, !tbaa !10
  store ptr %1, ptr %4, align 8, !tbaa !10
  %5 = load ptr, ptr %3, align 8
  %6 = load ptr, ptr %4, align 8, !tbaa !10
  call void @_ZN10params_ref4copyERKS_(ptr noundef nonnull align 8 dereferenceable(8) %5, ptr noundef nonnull align 8 dereferenceable(8) %6)
  ret void
}

; Function Attrs: mustprogress uwtable
define hidden void @_ZN15simplify_tactic11updt_paramsERK10params_ref(ptr noundef nonnull align 8 dereferenceable(32) %0, ptr noundef nonnull align 8 dereferenceable(8) %1) unnamed_addr #4 align 2 {
  %3 = alloca ptr, align 8
  %4 = alloca ptr, align 8
  store ptr %0, ptr %3, align 8, !tbaa !3
  store ptr %1, ptr %4, align 8, !tbaa !10
  %5 = load ptr, ptr %3, align 8
  %6 = getelementptr inbounds nuw %class.simplify_tactic, ptr %5, i32 0, i32 3
  %7 = load ptr, ptr %4, align 8, !tbaa !10
  call void @_ZN10params_ref6appendERKS_(ptr noundef nonnull align 8 dereferenceable(8) %6, ptr noundef nonnull align 8 dereferenceable(8) %7)
  %8 = getelementptr inbounds nuw %class.simplify_tactic, ptr %5, i32 0, i32 2
  %9 = load ptr, ptr %8, align 8, !tbaa !23
  %10 = getelementptr inbounds nuw %"struct.simplify_tactic::imp", ptr %9, i32 0, i32 1
  %11 = getelementptr inbounds nuw %class.simplify_tactic, ptr %5, i32 0, i32 3
  call void @_ZN11th_rewriter11updt_paramsERK10params_ref(ptr noundef nonnull align 8 dereferenceable(16) %10, ptr noundef nonnull align 8 dereferenceable(8) %11)
  ret void
}